target datalayout = "e-m:e-p270:32:32-p271:32:32-p272:64:64-i64:64-i128:128-f80:128-n8:16:32:64-S128"
target triple = "x86_64-unknown-linux-gnu"

%struct.CharBackend = type { ptr, ptr, ptr, ptr, ptr, ptr, i32, i32 }
%struct.GlobalProperty = type { ptr, ptr, ptr, i8, i8 }

@.str.9 = private unnamed_addr constant [41 x i8] c"../qemu/hw/core/qdev-properties-system.c\00", align 1
@.str.42 = private unnamed_addr constant [39 x i8] c"Property '%s.%s' can't find value '%s'\00", align 1
@__func__.check_prop_still_unset = private unnamed_addr constant [23 x i8] c"check_prop_still_unset\00", align 1
@.str.47 = private unnamed_addr constant [39 x i8] c"-global %s.%s=... conflicts with %s=%s\00", align 1
@.str.48 = private unnamed_addr constant [49 x i8] c"%s=%s conflicts, and override is not implemented\00", align 1
@__func__.set_chr = private unnamed_addr constant [8 x i8] c"set_chr\00", align 1
@.str.49 = private unnamed_addr constant [41 x i8] c"Property '%s.%s' can't take value '%s': \00", align 1

; Function Attrs: nounwind sspstrong uwtable
define internal zeroext i1 @check_prop_still_unset(ptr noundef %obj, ptr noundef %name, ptr noundef %old_val, ptr noundef %new_val, i1 noundef zeroext %allow_override, ptr noundef %errp) #0 {
entry:
  %retval = alloca i1, align 1
  %obj.addr = alloca ptr, align 8
  %name.addr = alloca ptr, align 8
  %old_val.addr = alloca ptr, align 8
  %new_val.addr = alloca ptr, align 8
  %allow_override.addr = alloca i8, align 1
  %errp.addr = alloca ptr, align 8
  %prop = alloca ptr, align 8
  store ptr %obj, ptr %obj.addr, align 8
  store ptr %name, ptr %name.addr, align 8
  store ptr %old_val, ptr %old_val.addr, align 8
  store ptr %new_val, ptr %new_val.addr, align 8
  %frombool = zext i1 %allow_override to i8
  store i8 %frombool, ptr %allow_override.addr, align 1
  store ptr %errp, ptr %errp.addr, align 8
  %0 = load ptr, ptr %obj.addr, align 8
  %1 = load ptr, ptr %name.addr, align 8
  %call = call ptr @qdev_find_global_prop(ptr noundef %0, ptr noundef %1)
  store ptr %call, ptr %prop, align 8
  %2 = load ptr, ptr %old_val.addr, align 8
  %tobool = icmp ne ptr %2, null
  br i1 %tobool, label %lor.lhs.false, label %if.then

lor.lhs.false:                                    ; preds = %entry
  %3 = load ptr, ptr %prop, align 8
  %tobool1 = icmp ne ptr %3, null
  br i1 %tobool1, label %if.end, label %land.lhs.true

land.lhs.true:                                    ; preds = %lor.lhs.false
  %4 = load i8, ptr %allow_override.addr, align 1
  %tobool2 = trunc i8 %4 to i1
  br i1 %tobool2, label %if.then, label %if.end

if.then:                                          ; preds = %land.lhs.true, %entry
  store i1 true, ptr %retval, align 1
  br label %return

if.end:                                           ; preds = %land.lhs.true, %lor.lhs.false
  %5 = load ptr, ptr %prop, align 8
  %tobool3 = icmp ne ptr %5, null
  br i1 %tobool3, label %if.then4, label %if.else

if.then4:                                         ; preds = %if.end
  %6 = load ptr, ptr %errp.addr, align 8
  %7 = load ptr, ptr %prop, align 8
  %driver = getelementptr inbounds %struct.GlobalProperty, ptr %7, i32 0, i32 0
  %8 = load ptr, ptr %driver, align 8
  %9 = load ptr, ptr %prop, align 8
  %property = getelementptr inbounds %struct.GlobalProperty, ptr %9, i32 0, i32 1
  %10 = load ptr, ptr %property, align 8
  %11 = load ptr, ptr %name.addr, align 8
  %12 = load ptr, ptr %new_val.addr, align 8
  call void (ptr, ptr, i32, ptr, ptr, ...) @error_setg_internal(ptr noundef %6, ptr noundef @.str.9, i32 noundef 51, ptr noundef @__func__.check_prop_still_unset, ptr noundef @.str.47, ptr noundef %8, ptr noundef %10, ptr noundef %11, ptr noundef %12)
  br label %if.end5

if.else:                                          ; preds = %if.end
  %13 = load ptr, ptr %errp.addr, align 8
  %14 = load ptr, ptr %name.addr, align 8
  %15 = load ptr, ptr %new_val.addr, align 8
  call void (ptr, ptr, i32, ptr, ptr, ...) @error_setg_internal(ptr noundef %13, ptr noundef @.str.9, i32 noundef 55, ptr noundef @__func__.check_prop_still_unset, ptr noundef @.str.48, ptr noundef %14, ptr noundef %15)
  br label %if.end5

if.end5:                                          ; preds = %if.else, %if.then4
  store i1 false, ptr %retval, align 1
  br label %return

return:                                           ; preds = %if.end5, %if.then
  %16 = load i1, ptr %retval, align 1
  ret i1 %16
}

; Function Attrs: nounwind sspstrong uwtable
define internal void @set_chr(ptr noundef %obj, ptr noundef %v, ptr noundef %name, ptr noundef %opaque, ptr noundef %errp) #0 {
entry:
  %obj.addr = alloca ptr, align 8
  %v.addr = alloca ptr, align 8
  %name.addr = alloca ptr, align 8
  %opaque.addr = alloca ptr, align 8
  %errp.addr = alloca ptr, align 8
  %prop = alloca ptr, align 8
  %be = alloca ptr, align 8
  %s = alloca ptr, align 8
  %str = alloca ptr, align 8
  store ptr %obj, ptr %obj.addr, align 8
  store ptr %v, ptr %v.addr, align 8
  store ptr %name, ptr %name.addr, align 8
  store ptr %opaque, ptr %opaque.addr, align 8
  store ptr %errp, ptr %errp.addr, align 8
  %0 = load ptr, ptr %opaque.addr, align 8
  store ptr %0, ptr %prop, align 8
  %1 = load ptr, ptr %obj.addr, align 8
  %2 = load ptr, ptr %prop, align 8
  %call = call ptr @object_field_prop_ptr(ptr noundef %1, ptr noundef %2)
  store ptr %call, ptr %be, align 8
  %3 = load ptr, ptr %v.addr, align 8
  %4 = load ptr, ptr %name.addr, align 8
  %5 = load ptr, ptr %errp.addr, align 8
  %call1 = call zeroext i1 @visit_type_str(ptr noundef %3, ptr noundef %4, ptr noundef %str, ptr noundef %5)
  br i1 %call1, label %if.end, label %if.then

if.then:                                          ; preds = %entry
  br label %return

if.end:                                           ; preds = %entry
  %6 = load ptr, ptr %obj.addr, align 8
  %7 = load ptr, ptr %name.addr, align 8
  %8 = load ptr, ptr %be, align 8
  %chr = getelementptr inbounds %struct.CharBackend, ptr %8, i32 0, i32 0
  %9 = load ptr, ptr %chr, align 8
  %10 = load ptr, ptr %str, align 8
  %11 = load ptr, ptr %errp.addr, align 8
  %call2 = call zeroext i1 @check_prop_still_unset(ptr noundef %6, ptr noundef %7, ptr noundef %9, ptr noundef %10, i1 noundef zeroext false, ptr noundef %11)
  br i1 %call2, label %if.end4, label %if.then3

if.then3:                                         ; preds = %if.end
  br label %return

if.end4:                                          ; preds = %if.end
  %12 = load ptr, ptr %str, align 8
  %13 = load i8, ptr %12, align 1
  %tobool = icmp ne i8 %13, 0
  br i1 %tobool, label %if.end7, label %if.then5

if.then5:                                         ; preds = %if.end4
  %14 = load ptr, ptr %str, align 8
  call void @g_free(ptr noundef %14)
  %15 = load ptr, ptr %be, align 8
  %chr6 = getelementptr inbounds %struct.CharBackend, ptr %15, i32 0, i32 0
  store ptr null, ptr %chr6, align 8
  br label %return

if.end7:                                          ; preds = %if.end4
  %16 = load ptr, ptr %str, align 8
  %call8 = call ptr @qemu_chr_find(ptr noundef %16)
  store ptr %call8, ptr %s, align 8
  %17 = load ptr, ptr %s, align 8
  %cmp = icmp eq ptr %17, null
  br i1 %cmp, label %if.then9, label %if.else

if.then9:                                         ; preds = %if.end7
  %18 = load ptr, ptr %errp.addr, align 8
  %19 = load ptr, ptr %obj.addr, align 8
  %call10 = call ptr @object_get_typename(ptr noundef %19)
  %20 = load ptr, ptr %name.addr, align 8
  %21 = load ptr, ptr %str, align 8
  call void (ptr, ptr, i32, ptr, ptr, ...) @error_setg_internal(ptr noundef %18, ptr noundef @.str.9, i32 noundef 279, ptr noundef @__func__.set_chr, ptr noundef @.str.42, ptr noundef %call10, ptr noundef %20, ptr noundef %21)
  br label %if.end15

if.else:                                          ; preds = %if.end7
  %22 = load ptr, ptr %be, align 8
  %23 = load ptr, ptr %s, align 8
  %24 = load ptr, ptr %errp.addr, align 8
  %call11 = call zeroext i1 @qemu_chr_fe_init(ptr noundef %22, ptr noundef %23, ptr noundef %24)
  br i1 %call11, label %if.end14, label %if.then12

if.then12:                                        ; preds = %if.else
  %25 = load ptr, ptr %errp.addr, align 8
  %26 = load ptr, ptr %obj.addr, align 8
  %call13 = call ptr @object_get_typename(ptr noundef %26)
  %27 = load ptr, ptr %name.addr, align 8
  %28 = load ptr, ptr %str, align 8
  call void (ptr, ptr, ...) @error_prepend(ptr noundef %25, ptr noundef @.str.49, ptr noundef %call13, ptr noundef %27, ptr noundef %28)
  br label %if.end14

if.end14:                                         ; preds = %if.then12, %if.else
  br label %if.end15

if.end15:                                         ; preds = %if.end14, %if.then9
  %29 = load ptr, ptr %str, align 8
  call void @g_free(ptr noundef %29)
  br label %return

return:                                           ; preds = %if.end15, %if.then5, %if.then3, %if.then
  ret void
}