; Function Attrs: nounwind sspstrong uwtable
define internal void @set_chr(ptr noundef %obj, ptr noundef %v, ptr noundef %name, ptr noundef %opaque, ptr noundef %errp) #0 {
entry:
  %str = alloca ptr, align 8
  %call = tail call ptr @object_field_prop_ptr(ptr noundef %obj, ptr noundef %opaque) #10
  %call1 = call zeroext i1 @visit_type_str(ptr noundef %v, ptr noundef %name, ptr noundef nonnull %str, ptr noundef %errp) #10
  br i1 %call1, label %if.end, label %return

if.end:                                           ; preds = %entry
  %0 = load ptr, ptr %call, align 8
  %1 = load ptr, ptr %str, align 8
  %call.i = call ptr @qdev_find_global_prop(ptr noundef %obj, ptr noundef %name) #10
  %tobool.not.i = icmp eq ptr %0, null
  br i1 %tobool.not.i, label %if.end4, label %lor.lhs.false.i

lor.lhs.false.i:                                  ; preds = %if.end
  %tobool1.not.i = icmp eq ptr %call.i, null
  br i1 %tobool1.not.i, label %if.else.i, label %if.then4.i

if.then4.i:                                       ; preds = %lor.lhs.false.i
  %2 = load ptr, ptr %call.i, align 8
  %property.i = getelementptr inbounds nuw i8, ptr %call.i, i64 8
  %3 = load ptr, ptr %property.i, align 8
  call void (ptr, ptr, i32, ptr, ptr, ...) @error_setg_internal(ptr noundef %errp, ptr noundef nonnull @.str.9, i32 noundef 51, ptr noundef nonnull @__func__.check_prop_still_unset, ptr noundef nonnull @.str.47, ptr noundef %2, ptr noundef %3, ptr noundef %name, ptr noundef %1) #10
  br label %return

if.else.i:                                        ; preds = %lor.lhs.false.i
  call void (ptr, ptr, i32, ptr, ptr, ...) @error_setg_internal(ptr noundef %errp, ptr noundef nonnull @.str.9, i32 noundef 55, ptr noundef nonnull @__func__.check_prop_still_unset, ptr noundef nonnull @.str.48, ptr noundef %name, ptr noundef %1) #10
  br label %return

if.end4:                                          ; preds = %if.end
  %4 = load ptr, ptr %str, align 8
  %5 = load i8, ptr %4, align 1
  %tobool.not = icmp eq i8 %5, 0
  br i1 %tobool.not, label %if.then5, label %if.end7

if.then5:                                         ; preds = %if.end4
  call void @g_free(ptr noundef nonnull %4) #10
  store ptr null, ptr %call, align 8
  br label %return

if.end7:                                          ; preds = %if.end4
  %call8 = call ptr @qemu_chr_find(ptr noundef nonnull %4) #10
  %cmp = icmp eq ptr %call8, null
  br i1 %cmp, label %if.then9, label %if.else

if.then9:                                         ; preds = %if.end7
  %call10 = call ptr @object_get_typename(ptr noundef %obj) #10
  %6 = load ptr, ptr %str, align 8
  call void (ptr, ptr, i32, ptr, ptr, ...) @error_setg_internal(ptr noundef %errp, ptr noundef nonnull @.str.9, i32 noundef 279, ptr noundef nonnull @__func__.set_chr, ptr noundef nonnull @.str.42, ptr noundef %call10, ptr noundef %name, ptr noundef %6) #10
  br label %if.end15

if.else:                                          ; preds = %if.end7
  %call11 = call zeroext i1 @qemu_chr_fe_init(ptr noundef nonnull %call, ptr noundef nonnull %call8, ptr noundef %errp) #10
  br i1 %call11, label %if.end15, label %if.then12

if.then12:                                        ; preds = %if.else
  %call13 = call ptr @object_get_typename(ptr noundef %obj) #10
  %7 = load ptr, ptr %str, align 8
  call void (ptr, ptr, ...) @error_prepend(ptr noundef %errp, ptr noundef nonnull @.str.49, ptr noundef %call13, ptr noundef %name, ptr noundef %7) #10
  br label %if.end15

if.end15:                                         ; preds = %if.else, %if.then12, %if.then9
  %8 = load ptr, ptr %str, align 8
  call void @g_free(ptr noundef %8) #10
  br label %return

return:                                           ; preds = %if.then4.i, %if.else.i, %entry, %if.end15, %if.then5
  ret void
}